target datalayout = "e-m:e-p270:32:32-p271:32:32-p272:64:64-i64:64-i128:128-f80:128-n8:16:32:64-S128"
target triple = "x86_64-pc-linux-gnu"

%struct.nghttp2_option = type { i64, i64, i64, i64, i64, i64, i64, i32, i32, i32, i32, i32, i32, i32, i32, i32, i32, i32, [32 x i8] }

; Function Attrs: nounwind uwtable
define void @nghttp2_option_set_no_auto_window_update(ptr noundef %0, i32 noundef %1) #0 {
  %3 = alloca ptr, align 8
  %4 = alloca i32, align 4
  store ptr %0, ptr %3, align 8, !tbaa !9
  store i32 %1, ptr %4, align 4, !tbaa !11
  %5 = load ptr, ptr %3, align 8, !tbaa !9
  %6 = getelementptr inbounds nuw %struct.nghttp2_option, ptr %5, i32 0, i32 7
  %7 = load i32, ptr %6, align 8, !tbaa !13
  %8 = or i32 %7, 1
  store i32 %8, ptr %6, align 8, !tbaa !13
  %9 = load i32, ptr %4, align 4, !tbaa !11
  %10 = load ptr, ptr %3, align 8, !tbaa !9
  %11 = getelementptr inbounds nuw %struct.nghttp2_option, ptr %10, i32 0, i32 11
  store i32 %9, ptr %11, align 8, !tbaa !16
  ret void
}